target datalayout = "e-m:e-p270:32:32-p271:32:32-p272:64:64-i64:64-i128:128-f80:128-n8:16:32:64-S128"
target triple = "x86_64-pc-linux-gnu"

%class.TypeInteger.base = type { %class.Type.base, i16 }
%class.Type.base = type <{ ptr, ptr, i32 }>
%class.TypeLong = type { %class.TypeInteger.base, i64, i64 }

@_ZN8TypeLong4LONGE = external global ptr, align 8

; Function Attrs: mustprogress nounwind uwtable
define linkonce_odr hidden noundef i64 @_ZNK8TypeLong7get_conEv(ptr noundef nonnull align 8 dereferenceable(40) %0) #1 comdat align 2 {
  %2 = alloca ptr, align 8
  store ptr %0, ptr %2, align 8
  %3 = load ptr, ptr %2, align 8
  %4 = getelementptr inbounds %class.TypeLong, ptr %3, i32 0, i32 1
  %5 = load i64, ptr %4, align 8
  ret i64 %5
}

; Function Attrs: mustprogress nounwind uwtable
define linkonce_odr hidden noundef zeroext i1 @_ZNK8TypeLong6is_conEv(ptr noundef nonnull align 8 dereferenceable(40) %0) #1 comdat align 2 {
  %2 = alloca ptr, align 8
  store ptr %0, ptr %2, align 8
  %3 = load ptr, ptr %2, align 8
  %4 = getelementptr inbounds %class.TypeLong, ptr %3, i32 0, i32 1
  %5 = load i64, ptr %4, align 8
  %6 = getelementptr inbounds %class.TypeLong, ptr %3, i32 0, i32 2
  %7 = load i64, ptr %6, align 8
  %8 = icmp eq i64 %5, %7
  ret i1 %8
}

; Function Attrs: mustprogress nounwind uwtable
define linkonce_odr hidden noundef ptr @_ZNK4Type7is_longEv(ptr noundef nonnull align 8 dereferenceable(20) %0) #1 comdat align 2 {
  %2 = alloca ptr, align 8
  store ptr %0, ptr %2, align 8
  %3 = load ptr, ptr %2, align 8
  ret ptr %3
}

; Function Attrs: mustprogress nounwind uwtable
define hidden noundef ptr @_ZNK8XorLNode8add_ringEPK4TypeS2_(ptr noundef nonnull align 8 dereferenceable(52) %0, ptr noundef %1, ptr noundef %2) unnamed_addr #1 align 2 {
  %4 = alloca ptr, align 8
  %5 = alloca ptr, align 8
  %6 = alloca ptr, align 8
  %7 = alloca ptr, align 8
  %8 = alloca ptr, align 8
  %9 = alloca ptr, align 8
  store ptr %0, ptr %5, align 8
  store ptr %1, ptr %6, align 8
  store ptr %2, ptr %7, align 8
  %10 = load ptr, ptr %6, align 8
  %11 = call noundef ptr @_ZNK4Type7is_longEv(ptr noundef nonnull align 8 dereferenceable(20) %10)
  store ptr %11, ptr %8, align 8
  %12 = load ptr, ptr %7, align 8
  %13 = call noundef ptr @_ZNK4Type7is_longEv(ptr noundef nonnull align 8 dereferenceable(20) %12)
  store ptr %13, ptr %9, align 8
  %14 = load ptr, ptr %8, align 8
  %15 = call noundef zeroext i1 @_ZNK8TypeLong6is_conEv(ptr noundef nonnull align 8 dereferenceable(40) %14)
  br i1 %15, label %16, label %19

16:                                               ; preds = %3
  %17 = load ptr, ptr %9, align 8
  %18 = call noundef zeroext i1 @_ZNK8TypeLong6is_conEv(ptr noundef nonnull align 8 dereferenceable(40) %17)
  br i1 %18, label %21, label %19

19:                                               ; preds = %16, %3
  %20 = load ptr, ptr @_ZN8TypeLong4LONGE, align 8
  store ptr %20, ptr %4, align 8
  br label %28

21:                                               ; preds = %16
  %22 = load ptr, ptr %8, align 8
  %23 = call noundef i64 @_ZNK8TypeLong7get_conEv(ptr noundef nonnull align 8 dereferenceable(40) %22)
  %24 = load ptr, ptr %9, align 8
  %25 = call noundef i64 @_ZNK8TypeLong7get_conEv(ptr noundef nonnull align 8 dereferenceable(40) %24)
  %26 = xor i64 %23, %25
  %27 = call noundef ptr @_ZN8TypeLong4makeEl(i64 noundef %26)
  store ptr %27, ptr %4, align 8
  br label %28

28:                                               ; preds = %21, %19
  %29 = load ptr, ptr %4, align 8
  ret ptr %29
}