; Function Attrs: mustprogress nounwind uwtable
define hidden noundef ptr @_ZNK8XorLNode8add_ringEPK4TypeS2_(ptr nocapture noundef nonnull readnone align 8 dereferenceable(52) %0, ptr nocapture noundef readonly %1, ptr nocapture noundef readonly %2) unnamed_addr #0 align 2 {
  %4 = getelementptr inbounds i8, ptr %1, i64 24
  %5 = load i64, ptr %4, align 8
  %6 = getelementptr inbounds i8, ptr %1, i64 32
  %7 = load i64, ptr %6, align 8
  %8 = icmp eq i64 %5, %7
  br i1 %8, label %9, label %15

9:                                                ; preds = %3
  %10 = getelementptr inbounds i8, ptr %2, i64 24
  %11 = load i64, ptr %10, align 8
  %12 = getelementptr inbounds i8, ptr %2, i64 32
  %13 = load i64, ptr %12, align 8
  %14 = icmp eq i64 %11, %13
  br i1 %14, label %17, label %15

15:                                               ; preds = %9, %3
  %16 = load ptr, ptr @_ZN8TypeLong4LONGE, align 8
  br label %20

17:                                               ; preds = %9
  %18 = xor i64 %11, %5
  %19 = tail call noundef ptr @_ZN8TypeLong4makeEl(i64 noundef %18) #7
  br label %20

20:                                               ; preds = %17, %15
  %.0 = phi ptr [ %19, %17 ], [ %16, %15 ]
  ret ptr %.0
}